; Function Attrs: mustprogress nounwind uwtable
define dso_local void @_ZN4llvm4Pass17dumpPassStructureEj(ptr noundef nonnull align 8 dereferenceable(28) %0, i32 noundef %1) unnamed_addr #0 align 2 {
  %3 = tail call noundef nonnull align 8 dereferenceable(48) ptr @_ZN4llvm4dbgsEv() #17
  %4 = shl i32 %1, 1
  %5 = tail call noundef nonnull align 8 dereferenceable(48) ptr @_ZN4llvm11raw_ostream6indentEj(ptr noundef nonnull align 8 dereferenceable(48) %3, i32 noundef %4) #17
  %6 = load ptr, ptr %0, align 8
  %7 = getelementptr inbounds nuw i8, ptr %6, i64 16
  %8 = load ptr, ptr %7, align 8
  %9 = tail call { ptr, i64 } %8(ptr noundef nonnull align 8 dereferenceable(28) %0) #17
  %10 = extractvalue { ptr, i64 } %9, 0
  %11 = extractvalue { ptr, i64 } %9, 1
  %12 = getelementptr inbounds nuw i8, ptr %5, i64 24
  %13 = load ptr, ptr %12, align 8
  %14 = getelementptr inbounds nuw i8, ptr %5, i64 32
  %15 = load ptr, ptr %14, align 8
  %16 = ptrtoint ptr %13 to i64
  %17 = ptrtoint ptr %15 to i64
  %18 = sub i64 %16, %17
  %19 = icmp ugt i64 %11, %18
  br i1 %19, label %20, label %22

20:                                               ; preds = %2
  %21 = tail call noundef nonnull align 8 dereferenceable(48) ptr @_ZN4llvm11raw_ostream5writeEPKcm(ptr noundef nonnull align 8 dereferenceable(48) %5, ptr noundef %10, i64 noundef %11) #17
  %.phi.trans.insert = getelementptr inbounds nuw i8, ptr %21, i64 32
  %.pre = load ptr, ptr %.phi.trans.insert, align 8
  br label %_ZN4llvm11raw_ostreamlsENS_9StringRefE.exit

22:                                               ; preds = %2
  %.not.i = icmp eq i64 %11, 0
  br i1 %.not.i, label %_ZN4llvm11raw_ostreamlsENS_9StringRefE.exit, label %23

23:                                               ; preds = %22
  tail call void @llvm.memcpy.p0.p0.i64(ptr align 1 %15, ptr align 1 %10, i64 %11, i1 false)
  %24 = load ptr, ptr %14, align 8
  %25 = getelementptr inbounds i8, ptr %24, i64 %11
  store ptr %25, ptr %14, align 8
  br label %_ZN4llvm11raw_ostreamlsENS_9StringRefE.exit

_ZN4llvm11raw_ostreamlsENS_9StringRefE.exit:      ; preds = %20, %22, %23
  %26 = phi ptr [ %.pre, %20 ], [ %25, %23 ], [ %15, %22 ]
  %.0.i = phi ptr [ %21, %20 ], [ %5, %23 ], [ %5, %22 ]
  %27 = getelementptr inbounds nuw i8, ptr %.0.i, i64 24
  %28 = load ptr, ptr %27, align 8
  %29 = icmp eq ptr %28, %26
  br i1 %29, label %30, label %32

30:                                               ; preds = %_ZN4llvm11raw_ostreamlsENS_9StringRefE.exit
  %31 = tail call noundef nonnull align 8 dereferenceable(48) ptr @_ZN4llvm11raw_ostream5writeEPKcm(ptr noundef nonnull align 8 dereferenceable(48) %.0.i, ptr noundef nonnull @.str, i64 noundef 1) #17
  br label %_ZN4llvm11raw_ostreamlsEPKc.exit

32:                                               ; preds = %_ZN4llvm11raw_ostreamlsENS_9StringRefE.exit
  %33 = getelementptr inbounds nuw i8, ptr %.0.i, i64 32
  store i8 10, ptr %26, align 1
  %34 = load ptr, ptr %33, align 8
  %35 = getelementptr inbounds nuw i8, ptr %34, i64 1
  store ptr %35, ptr %33, align 8
  br label %_ZN4llvm11raw_ostreamlsEPKc.exit

_ZN4llvm11raw_ostreamlsEPKc.exit:                 ; preds = %30, %32
  ret void
}